; Function Attrs: mustprogress uwtable
define hidden noundef zeroext i1 @_ZNK19OpenColorIO_v2_5dev12MatrixOpData10isDiagonalEv(ptr noundef nonnull align 8 dereferenceable(260) %0) local_unnamed_addr #3 align 2 {
  %2 = getelementptr inbounds nuw i8, ptr %0, i64 168
  %3 = load ptr, ptr %2, align 8, !tbaa !15
  %4 = getelementptr inbounds nuw i8, ptr %3, i64 48
  %5 = load ptr, ptr %4, align 8
  %6 = tail call noundef i64 %5(ptr noundef nonnull align 8 dereferenceable(8) %2)
  %7 = load ptr, ptr %2, align 8, !tbaa !15
  %8 = getelementptr inbounds nuw i8, ptr %7, i64 32
  %9 = load ptr, ptr %8, align 8
  %10 = tail call noundef i64 %9(ptr noundef nonnull align 8 dereferenceable(48) %2)
  %.not1415 = icmp eq i64 %6, 0
  br i1 %.not1415, label %.critedge, label %.lr.ph

.lr.ph:                                           ; preds = %1
  %11 = getelementptr inbounds nuw i8, ptr %0, i64 192
  %12 = add i64 %10, 1
  %13 = load ptr, ptr %11, align 8
  br label %14

14:                                               ; preds = %.lr.ph, %20
  %.01216 = phi i64 [ 0, %.lr.ph ], [ %21, %20 ]
  %15 = urem i64 %.01216, %12
  %.not = icmp eq i64 %15, 0
  br i1 %.not, label %20, label %16

16:                                               ; preds = %14
  %17 = getelementptr inbounds nuw double, ptr %13, i64 %.01216
  %18 = load double, ptr %17, align 8, !tbaa !7
  %19 = fcmp une double %18, 0.000000e+00
  br i1 %19, label %.critedge, label %20

20:                                               ; preds = %14, %16
  %21 = add nuw i64 %.01216, 1
  %exitcond.not = icmp eq i64 %21, %6
  br i1 %exitcond.not, label %.critedge, label %14, !llvm.loop !114

.critedge:                                        ; preds = %16, %20, %1
  %.not14.lcssa = phi i1 [ true, %1 ], [ true, %20 ], [ false, %16 ]
  ret i1 %.not14.lcssa
}